CCS PCM C Compiler, Version 5.076, 41316               03-oct.-23 02:33

               Filename:   C:\Users\Usuario\Desktop\Injertadora\PIC 1\Microcontrolador 1.lst

               ROM used:   933 words (11%)
                           Largest free fragment is 2048
               RAM used:   26 (7%) at main() level
                           40 (11%) worst case
               Stack used: 1 locations
               Stack size: 8

*
0000:  MOVLW  02
0001:  MOVWF  0A
0002:  GOTO   2C0
0003:  NOP
.................... #include <16f877a.h> 
.................... //////////// Standard Header file for the PIC16F877A device //////////////// 
.................... /////////////////////////////////////////////////////////////////////////// 
.................... ////        (C) Copyright 1996, 2014 Custom Computer Services          //// 
.................... //// This source code may only be used by licensed users of the CCS C  //// 
.................... //// compiler.  This source code may only be distributed to other      //// 
.................... //// licensed users of the CCS C compiler.  No other use, reproduction //// 
.................... //// or distribution is permitted without written permission.          //// 
.................... //// Derivative programs created using this software in object code    //// 
.................... //// form are not restricted in any way.                               //// 
.................... /////////////////////////////////////////////////////////////////////////// 
.................... #device PIC16F877A 
*
0026:  MOVLW  8E
0027:  MOVWF  77
0028:  MOVF   32,W
0029:  MOVWF  78
002A:  MOVF   31,W
002B:  MOVWF  79
002C:  CLRF   7A
002D:  MOVF   78,F
002E:  BTFSS  03.2
002F:  GOTO   03A
0030:  MOVF   79,W
0031:  MOVWF  78
0032:  CLRF   79
0033:  MOVLW  08
0034:  SUBWF  77,F
0035:  MOVF   78,F
0036:  BTFSS  03.2
0037:  GOTO   03A
0038:  CLRF   77
0039:  GOTO   042
003A:  BCF    03.0
003B:  BTFSC  78.7
003C:  GOTO   041
003D:  RLF    79,F
003E:  RLF    78,F
003F:  DECF   77,F
0040:  GOTO   03A
0041:  BCF    78.7
0042:  BCF    0A.3
0043:  BCF    0A.4
0044:  GOTO   2FE (RETURN)
0045:  MOVF   31,W
0046:  BTFSC  03.2
0047:  GOTO   0B5
0048:  MOVWF  39
0049:  MOVF   35,W
004A:  BTFSC  03.2
004B:  GOTO   0B5
004C:  ADDWF  39,F
004D:  BTFSC  03.0
004E:  GOTO   056
004F:  MOVLW  7F
0050:  SUBWF  39,F
0051:  BTFSS  03.0
0052:  GOTO   0B5
0053:  BTFSC  03.2
0054:  GOTO   0B5
0055:  GOTO   05A
0056:  MOVLW  81
0057:  ADDWF  39,F
0058:  BTFSC  03.0
0059:  GOTO   0B5
005A:  MOVF   39,W
005B:  MOVWF  77
005C:  CLRF   78
005D:  CLRF   79
005E:  CLRF   7A
005F:  MOVF   32,W
0060:  MOVWF  3D
0061:  BSF    3D.7
0062:  MOVF   33,W
0063:  MOVWF  3C
0064:  MOVF   34,W
0065:  MOVWF  3B
0066:  MOVLW  18
0067:  MOVWF  39
0068:  CLRF   3A
0069:  BTFSS  3B.0
006A:  GOTO   083
006B:  MOVF   38,W
006C:  ADDWF  7A,F
006D:  BTFSS  03.0
006E:  GOTO   075
006F:  INCF   79,F
0070:  BTFSS  03.2
0071:  GOTO   075
0072:  INCF   78,F
0073:  BTFSC  03.2
0074:  BSF    3A.7
0075:  MOVF   37,W
0076:  ADDWF  79,F
0077:  BTFSS  03.0
0078:  GOTO   07C
0079:  INCF   78,F
007A:  BTFSC  03.2
007B:  BSF    3A.7
007C:  MOVF   36,W
007D:  MOVWF  33
007E:  BSF    33.7
007F:  MOVF   33,W
0080:  ADDWF  78,F
0081:  BTFSC  03.0
0082:  BSF    3A.7
0083:  RLF    3A,F
0084:  RRF    78,F
0085:  RRF    79,F
0086:  RRF    7A,F
0087:  RRF    3D,F
0088:  RRF    3C,F
0089:  RRF    3B,F
008A:  BCF    03.0
008B:  DECFSZ 39,F
008C:  GOTO   068
008D:  MOVLW  01
008E:  ADDWF  77,F
008F:  BTFSC  03.0
0090:  GOTO   0B5
0091:  BTFSC  78.7
0092:  GOTO   09A
0093:  RLF    3D,F
0094:  RLF    7A,F
0095:  RLF    79,F
0096:  RLF    78,F
0097:  DECF   77,F
0098:  BTFSC  03.2
0099:  GOTO   0B5
009A:  BTFSS  3D.7
009B:  GOTO   0AB
009C:  INCF   7A,F
009D:  BTFSS  03.2
009E:  GOTO   0AB
009F:  INCF   79,F
00A0:  BTFSS  03.2
00A1:  GOTO   0AB
00A2:  INCF   78,F
00A3:  BTFSS  03.2
00A4:  GOTO   0AB
00A5:  RRF    78,F
00A6:  RRF    79,F
00A7:  RRF    7A,F
00A8:  INCF   77,F
00A9:  BTFSC  03.2
00AA:  GOTO   0B5
00AB:  MOVF   32,W
00AC:  MOVWF  3A
00AD:  MOVF   36,W
00AE:  XORWF  3A,F
00AF:  BTFSS  3A.7
00B0:  GOTO   0B3
00B1:  BSF    78.7
00B2:  GOTO   0B9
00B3:  BCF    78.7
00B4:  GOTO   0B9
00B5:  CLRF   77
00B6:  CLRF   78
00B7:  CLRF   79
00B8:  CLRF   7A
00B9:  BCF    0A.3
00BA:  BCF    0A.4
00BB:  GOTO   30D (RETURN)
00BC:  MOVF   35,W
00BD:  BTFSC  03.2
00BE:  GOTO   181
00BF:  MOVWF  41
00C0:  MOVF   39,W
00C1:  BTFSC  03.2
00C2:  GOTO   181
00C3:  SUBWF  41,F
00C4:  BTFSS  03.0
00C5:  GOTO   0CB
00C6:  MOVLW  7F
00C7:  ADDWF  41,F
00C8:  BTFSC  03.0
00C9:  GOTO   181
00CA:  GOTO   0D1
00CB:  MOVLW  81
00CC:  SUBWF  41,F
00CD:  BTFSS  03.0
00CE:  GOTO   181
00CF:  BTFSC  03.2
00D0:  GOTO   181
00D1:  MOVF   41,W
00D2:  MOVWF  77
00D3:  CLRF   78
00D4:  CLRF   79
00D5:  CLRF   7A
00D6:  CLRF   40
00D7:  MOVF   36,W
00D8:  MOVWF  3F
00D9:  BSF    3F.7
00DA:  MOVF   37,W
00DB:  MOVWF  3E
00DC:  MOVF   38,W
00DD:  MOVWF  3D
00DE:  MOVLW  19
00DF:  MOVWF  41
00E0:  MOVF   3C,W
00E1:  SUBWF  3D,F
00E2:  BTFSC  03.0
00E3:  GOTO   0F4
00E4:  MOVLW  01
00E5:  SUBWF  3E,F
00E6:  BTFSC  03.0
00E7:  GOTO   0F4
00E8:  SUBWF  3F,F
00E9:  BTFSC  03.0
00EA:  GOTO   0F4
00EB:  SUBWF  40,F
00EC:  BTFSC  03.0
00ED:  GOTO   0F4
00EE:  INCF   40,F
00EF:  INCF   3F,F
00F0:  INCF   3E,F
00F1:  MOVF   3C,W
00F2:  ADDWF  3D,F
00F3:  GOTO   126
00F4:  MOVF   3B,W
00F5:  SUBWF  3E,F
00F6:  BTFSC  03.0
00F7:  GOTO   10F
00F8:  MOVLW  01
00F9:  SUBWF  3F,F
00FA:  BTFSC  03.0
00FB:  GOTO   10F
00FC:  SUBWF  40,F
00FD:  BTFSC  03.0
00FE:  GOTO   10F
00FF:  INCF   40,F
0100:  INCF   3F,F
0101:  MOVF   3B,W
0102:  ADDWF  3E,F
0103:  MOVF   3C,W
0104:  ADDWF  3D,F
0105:  BTFSS  03.0
0106:  GOTO   126
0107:  INCF   3E,F
0108:  BTFSS  03.2
0109:  GOTO   126
010A:  INCF   3F,F
010B:  BTFSS  03.2
010C:  GOTO   126
010D:  INCF   40,F
010E:  GOTO   126
010F:  MOVF   3A,W
0110:  IORLW  80
0111:  SUBWF  3F,F
0112:  BTFSC  03.0
0113:  GOTO   125
0114:  MOVLW  01
0115:  SUBWF  40,F
0116:  BTFSC  03.0
0117:  GOTO   125
0118:  INCF   40,F
0119:  MOVF   3A,W
011A:  IORLW  80
011B:  ADDWF  3F,F
011C:  MOVF   3B,W
011D:  ADDWF  3E,F
011E:  BTFSS  03.0
011F:  GOTO   103
0120:  INCF   3F,F
0121:  BTFSS  03.2
0122:  GOTO   103
0123:  INCF   40,F
0124:  GOTO   103
0125:  BSF    7A.0
0126:  DECFSZ 41,F
0127:  GOTO   129
0128:  GOTO   134
0129:  BCF    03.0
012A:  RLF    3D,F
012B:  RLF    3E,F
012C:  RLF    3F,F
012D:  RLF    40,F
012E:  BCF    03.0
012F:  RLF    7A,F
0130:  RLF    79,F
0131:  RLF    78,F
0132:  RLF    42,F
0133:  GOTO   0E0
0134:  BTFSS  42.0
0135:  GOTO   13C
0136:  BCF    03.0
0137:  RRF    78,F
0138:  RRF    79,F
0139:  RRF    7A,F
013A:  RRF    42,F
013B:  GOTO   13F
013C:  DECF   77,F
013D:  BTFSC  03.2
013E:  GOTO   181
013F:  BTFSC  42.7
0140:  GOTO   168
0141:  BCF    03.0
0142:  RLF    3D,F
0143:  RLF    3E,F
0144:  RLF    3F,F
0145:  RLF    40,F
0146:  MOVF   3C,W
0147:  SUBWF  3D,F
0148:  BTFSC  03.0
0149:  GOTO   154
014A:  MOVLW  01
014B:  SUBWF  3E,F
014C:  BTFSC  03.0
014D:  GOTO   154
014E:  SUBWF  3F,F
014F:  BTFSC  03.0
0150:  GOTO   154
0151:  SUBWF  40,F
0152:  BTFSS  03.0
0153:  GOTO   177
0154:  MOVF   3B,W
0155:  SUBWF  3E,F
0156:  BTFSC  03.0
0157:  GOTO   15F
0158:  MOVLW  01
0159:  SUBWF  3F,F
015A:  BTFSC  03.0
015B:  GOTO   15F
015C:  SUBWF  40,F
015D:  BTFSS  03.0
015E:  GOTO   177
015F:  MOVF   3A,W
0160:  IORLW  80
0161:  SUBWF  3F,F
0162:  BTFSC  03.0
0163:  GOTO   168
0164:  MOVLW  01
0165:  SUBWF  40,F
0166:  BTFSS  03.0
0167:  GOTO   177
0168:  INCF   7A,F
0169:  BTFSS  03.2
016A:  GOTO   177
016B:  INCF   79,F
016C:  BTFSS  03.2
016D:  GOTO   177
016E:  INCF   78,F
016F:  BTFSS  03.2
0170:  GOTO   177
0171:  INCF   77,F
0172:  BTFSC  03.2
0173:  GOTO   181
0174:  RRF    78,F
0175:  RRF    79,F
0176:  RRF    7A,F
0177:  MOVF   36,W
0178:  MOVWF  41
0179:  MOVF   3A,W
017A:  XORWF  41,F
017B:  BTFSS  41.7
017C:  GOTO   17F
017D:  BSF    78.7
017E:  GOTO   185
017F:  BCF    78.7
0180:  GOTO   185
0181:  CLRF   77
0182:  CLRF   78
0183:  CLRF   79
0184:  CLRF   7A
0185:  BCF    0A.3
0186:  BCF    0A.4
0187:  GOTO   325 (RETURN)
0188:  MOVF   32,W
0189:  MOVWF  39
018A:  MOVF   36,W
018B:  XORWF  39,F
018C:  BTFSS  39.7
018D:  GOTO   193
018E:  BCF    03.2
018F:  BCF    03.0
0190:  BTFSC  32.7
0191:  BSF    03.0
0192:  GOTO   1C6
0193:  MOVF   32,W
0194:  MOVWF  39
0195:  MOVF   35,W
0196:  MOVWF  3A
0197:  MOVF   31,W
0198:  SUBWF  3A,F
0199:  BTFSC  03.2
019A:  GOTO   1A1
019B:  BTFSS  39.7
019C:  GOTO   1C6
019D:  MOVF   03,W
019E:  XORLW  01
019F:  MOVWF  03
01A0:  GOTO   1C6
01A1:  MOVF   36,W
01A2:  MOVWF  3A
01A3:  MOVF   32,W
01A4:  SUBWF  3A,F
01A5:  BTFSC  03.2
01A6:  GOTO   1AD
01A7:  BTFSS  39.7
01A8:  GOTO   1C6
01A9:  MOVF   03,W
01AA:  XORLW  01
01AB:  MOVWF  03
01AC:  GOTO   1C6
01AD:  MOVF   37,W
01AE:  MOVWF  3A
01AF:  MOVF   33,W
01B0:  SUBWF  3A,F
01B1:  BTFSC  03.2
01B2:  GOTO   1B9
01B3:  BTFSS  39.7
01B4:  GOTO   1C6
01B5:  MOVF   03,W
01B6:  XORLW  01
01B7:  MOVWF  03
01B8:  GOTO   1C6
01B9:  MOVF   38,W
01BA:  MOVWF  3A
01BB:  MOVF   34,W
01BC:  SUBWF  3A,F
01BD:  BTFSC  03.2
01BE:  GOTO   1C5
01BF:  BTFSS  39.7
01C0:  GOTO   1C6
01C1:  MOVF   03,W
01C2:  XORLW  01
01C3:  MOVWF  03
01C4:  GOTO   1C6
01C5:  BCF    03.0
01C6:  BCF    0A.3
01C7:  BCF    0A.4
01C8:  GOTO   33B (RETURN)
....................  
.................... #list 
....................  
.................... #device ADC=10 
.................... #fuses HS,NOWDT,NOPROTECT,NOPUT,NOLVP,BROWNOUT 
.................... #use delay(clock=20M) 
01C9:  MOVLW  03
01CA:  SUBWF  34,F
01CB:  BTFSS  03.0
01CC:  GOTO   1D7
01CD:  MOVLW  34
01CE:  MOVWF  04
01CF:  BCF    03.7
01D0:  MOVF   00,W
01D1:  BTFSC  03.2
01D2:  GOTO   1D7
01D3:  GOTO   1D5
01D4:  GOTO   1D5
01D5:  DECFSZ 00,F
01D6:  GOTO   1D4
01D7:  RETURN
*
02AC:  MOVLW  32
02AD:  MOVWF  04
02AE:  BCF    03.7
02AF:  MOVF   00,W
02B0:  BTFSC  03.2
02B1:  GOTO   2BF
02B2:  MOVLW  06
02B3:  MOVWF  78
02B4:  CLRF   77
02B5:  DECFSZ 77,F
02B6:  GOTO   2B5
02B7:  DECFSZ 78,F
02B8:  GOTO   2B4
02B9:  MOVLW  7B
02BA:  MOVWF  77
02BB:  DECFSZ 77,F
02BC:  GOTO   2BB
02BD:  DECFSZ 00,F
02BE:  GOTO   2B2
02BF:  RETURN
.................... #use standard_io(A,C,D) 
....................  
.................... #define MOTOR1_STEP PIN_C7 
.................... #define MOTOR1_DIR PIN_C6 
.................... #define MOTOR2_STEP PIN_C5 
.................... #define MOTOR2_DIR PIN_C4 
.................... #define MOTOR3_STEP PIN_D3 
.................... #define MOTOR3_DIR PIN_D2 
....................  
.................... long limite_vuelta = 200; // Numero de pasos para dar una vuelta 
.................... long limite_vuelta_M3 = 200;  
.................... long velocidad_motor = 600; // Velocidad de giro del motor 
.................... long valor_adc; 
.................... float voltaje; 
.................... void pasos_izquierda(unsigned long velocidad); // Declaracion de funciones 
.................... void pasos_derecha(unsigned long velocidad); 
.................... void pasos_off(void); 
.................... void pasos_izquierda_M3(unsigned long velocidad); // Declaracion de funciones 
.................... void pasos_derecha_M3(unsigned long velocidad); 
.................... void pasos_off_M3(void); 
.................... void servos(void); 
....................  
.................... void main() 
02C0:  MOVF   03,W
02C1:  ANDLW  1F
02C2:  MOVWF  03
02C3:  CLRF   21
02C4:  MOVLW  C8
02C5:  MOVWF  20
02C6:  CLRF   23
02C7:  MOVWF  22
02C8:  MOVLW  02
02C9:  MOVWF  25
02CA:  MOVLW  58
02CB:  MOVWF  24
02CC:  MOVLW  FF
02CD:  MOVWF  2C
02CE:  BSF    03.5
02CF:  BSF    1F.0
02D0:  BSF    1F.1
02D1:  BSF    1F.2
02D2:  BCF    1F.3
02D3:  MOVLW  07
02D4:  MOVWF  1C
02D5:  BCF    03.7
.................... { 
....................  pasos_off(); // Inicializa apagado el motor 
02D6:  BCF    03.5
02D7:  CALL   004
....................  pasos_off_M3(); // Inicializa apagado el motor 
02D8:  CALL   01D
....................   
....................  setup_adc_ports(AN0); 
02D9:  BSF    03.5
02DA:  BCF    1F.0
02DB:  BSF    1F.1
02DC:  BSF    1F.2
02DD:  BSF    1F.3
....................  setup_adc(adc_clock_internal); 
02DE:  BCF    1F.6
02DF:  BCF    03.5
02E0:  BSF    1F.6
02E1:  BSF    1F.7
02E2:  BSF    03.5
02E3:  BSF    1F.7
02E4:  BCF    03.5
02E5:  BSF    1F.0
....................   
....................  while(true) 
....................  { 
....................  set_adc_channel(0); 
02E6:  MOVLW  00
02E7:  MOVWF  78
02E8:  MOVF   1F,W
02E9:  ANDLW  C7
02EA:  IORWF  78,W
02EB:  MOVWF  1F
....................  delay_us(2); 
02EC:  MOVLW  03
02ED:  MOVWF  77
02EE:  DECFSZ 77,F
02EF:  GOTO   2EE
....................  valor_adc = read_adc(); 
02F0:  BSF    1F.2
02F1:  BTFSC  1F.2
02F2:  GOTO   2F1
02F3:  BSF    03.5
02F4:  MOVF   1E,W
02F5:  BCF    03.5
02F6:  MOVWF  26
02F7:  MOVF   1E,W
02F8:  MOVWF  27
....................  voltaje = (valor_adc*5.0)/1023.0; 
02F9:  MOVF   27,W
02FA:  MOVWF  32
02FB:  MOVF   26,W
02FC:  MOVWF  31
02FD:  GOTO   026
02FE:  MOVF   7A,W
02FF:  MOVWF  34
0300:  MOVF   79,W
0301:  MOVWF  33
0302:  MOVF   78,W
0303:  MOVWF  32
0304:  MOVF   77,W
0305:  MOVWF  31
0306:  CLRF   38
0307:  CLRF   37
0308:  MOVLW  20
0309:  MOVWF  36
030A:  MOVLW  81
030B:  MOVWF  35
030C:  GOTO   045
030D:  MOVF   7A,W
030E:  MOVWF  34
030F:  MOVF   79,W
0310:  MOVWF  33
0311:  MOVF   78,W
0312:  MOVWF  32
0313:  MOVF   77,W
0314:  MOVWF  31
0315:  MOVF   7A,W
0316:  MOVWF  38
0317:  MOVF   79,W
0318:  MOVWF  37
0319:  MOVF   78,W
031A:  MOVWF  36
031B:  MOVF   77,W
031C:  MOVWF  35
031D:  CLRF   3C
031E:  MOVLW  C0
031F:  MOVWF  3B
0320:  MOVLW  7F
0321:  MOVWF  3A
0322:  MOVLW  88
0323:  MOVWF  39
0324:  GOTO   0BC
0325:  MOVF   7A,W
0326:  MOVWF  2B
0327:  MOVF   79,W
0328:  MOVWF  2A
0329:  MOVF   78,W
032A:  MOVWF  29
032B:  MOVF   77,W
032C:  MOVWF  28
....................   
....................  if(voltaje > 4) // si el voltaje es mayor a 4  
032D:  CLRF   34
032E:  CLRF   33
032F:  CLRF   32
0330:  MOVLW  81
0331:  MOVWF  31
0332:  MOVF   2B,W
0333:  MOVWF  38
0334:  MOVF   2A,W
0335:  MOVWF  37
0336:  MOVF   29,W
0337:  MOVWF  36
0338:  MOVF   28,W
0339:  MOVWF  35
033A:  GOTO   188
033B:  BTFSS  03.0
033C:  GOTO   39F
....................  {  
....................  output_low(PIN_D1); //BANDA APAGADA 
033D:  BSF    03.5
033E:  BCF    08.1
033F:  BCF    03.5
0340:  BCF    08.1
....................   
....................  ////////////////////////////////////////////////////////////////////// 
....................  for(int i=0; i<limite_vuelta; i++) // El motor 1 Y 2 giran hacia la izquierda 
0341:  CLRF   2D
0342:  MOVF   21,F
0343:  BTFSS  03.2
0344:  GOTO   349
0345:  MOVF   20,W
0346:  SUBWF  2D,W
0347:  BTFSC  03.0
0348:  GOTO   350
....................  { 
....................  pasos_izquierda(velocidad_motor); 
0349:  MOVF   25,W
034A:  MOVWF  32
034B:  MOVF   24,W
034C:  MOVWF  31
034D:  GOTO   1D8
034E:  INCF   2D,F
034F:  GOTO   342
....................  } 
....................  pasos_off(); // El motor se detiene por un momento 
0350:  CALL   004
....................  ////////////////////////////////////////////////////////////////////// 
....................  for(int j=0; j<limite_vuelta_M3; j++) // El motor 3 gira hacia la izquierda 
0351:  CLRF   2E
0352:  MOVF   23,F
0353:  BTFSS  03.2
0354:  GOTO   359
0355:  MOVF   22,W
0356:  SUBWF  2E,W
0357:  BTFSC  03.0
0358:  GOTO   360
....................  { 
....................  pasos_izquierda_M3(velocidad_motor); 
0359:  MOVF   25,W
035A:  MOVWF  32
035B:  MOVF   24,W
035C:  MOVWF  31
035D:  GOTO   219
035E:  INCF   2E,F
035F:  GOTO   352
....................  } 
....................  pasos_off_M3(); // Finalmente el motor se detiene 
0360:  CALL   01D
....................   
....................  for(int j=0; j<limite_vuelta_M3; j++) // El motor 3 gira hacia la derecha 
0361:  CLRF   2F
0362:  MOVF   23,F
0363:  BTFSS  03.2
0364:  GOTO   369
0365:  MOVF   22,W
0366:  SUBWF  2F,W
0367:  BTFSC  03.0
0368:  GOTO   370
....................  { 
....................  pasos_derecha_M3(velocidad_motor); 
0369:  MOVF   25,W
036A:  MOVWF  32
036B:  MOVF   24,W
036C:  MOVWF  31
036D:  GOTO   242
036E:  INCF   2F,F
036F:  GOTO   362
....................  } 
....................  pasos_off_M3(); // Finalmente el motor se detiene 
0370:  CALL   01D
....................   
....................  ////////////////////////////////////////////////////////////////////// 
....................  for(int i=0; i<limite_vuelta; i++) // El motor 1 Y 2 giran hacia la derecha 
0371:  CLRF   30
0372:  MOVF   21,F
0373:  BTFSS  03.2
0374:  GOTO   379
0375:  MOVF   20,W
0376:  SUBWF  30,W
0377:  BTFSC  03.0
0378:  GOTO   380
....................  { 
....................  pasos_derecha(velocidad_motor); 
0379:  MOVF   25,W
037A:  MOVWF  32
037B:  MOVF   24,W
037C:  MOVWF  31
037D:  GOTO   26B
037E:  INCF   30,F
037F:  GOTO   372
....................  } 
....................  pasos_off();  
0380:  CALL   004
....................  delay_ms(500); 
0381:  MOVLW  02
0382:  MOVWF  31
0383:  MOVLW  FA
0384:  MOVWF  32
0385:  CALL   2AC
0386:  DECFSZ 31,F
0387:  GOTO   383
....................  ////////////////////////////////////////////////////////////////////// 
....................   
....................  output_high(PIN_D1);  
0388:  BSF    03.5
0389:  BCF    08.1
038A:  BCF    03.5
038B:  BSF    08.1
....................  delay_ms(3300); 
038C:  MOVLW  0F
038D:  MOVWF  31
038E:  MOVLW  DC
038F:  MOVWF  32
0390:  CALL   2AC
0391:  DECFSZ 31,F
0392:  GOTO   38E
....................  output_low(PIN_D1); 
0393:  BSF    03.5
0394:  BCF    08.1
0395:  BCF    03.5
0396:  BCF    08.1
....................  delay_ms(20200); 
0397:  MOVLW  64
0398:  MOVWF  31
0399:  MOVLW  CA
039A:  MOVWF  32
039B:  CALL   2AC
039C:  DECFSZ 31,F
039D:  GOTO   399
....................  } 
039E:  GOTO   3A3
....................   
....................  else // en caso contrario 
....................  {  
....................  output_high(PIN_D1); //BANDA ENCENDIDA 
039F:  BSF    03.5
03A0:  BCF    08.1
03A1:  BCF    03.5
03A2:  BSF    08.1
....................  } 
03A3:  GOTO   2E6
....................  } 
.................... } 
.................... void pasos_izquierda(unsigned long velocidad) // Funcion de pasos hacia la izquierda 
03A4:  SLEEP
.................... { 
....................  output_high(MOTOR1_DIR); 
*
01D8:  BCF    2C.6
01D9:  MOVF   2C,W
01DA:  BSF    03.5
01DB:  MOVWF  07
01DC:  BCF    03.5
01DD:  BSF    07.6
....................  output_high(MOTOR2_DIR); 
01DE:  BCF    2C.4
01DF:  MOVF   2C,W
01E0:  BSF    03.5
01E1:  MOVWF  07
01E2:  BCF    03.5
01E3:  BSF    07.4
....................  output_high(MOTOR1_STEP); 
01E4:  BCF    2C.7
01E5:  MOVF   2C,W
01E6:  BSF    03.5
01E7:  MOVWF  07
01E8:  BCF    03.5
01E9:  BSF    07.7
....................  output_high(MOTOR2_STEP); 
01EA:  BCF    2C.5
01EB:  MOVF   2C,W
01EC:  BSF    03.5
01ED:  MOVWF  07
01EE:  BCF    03.5
01EF:  BSF    07.5
....................  delay_us(velocidad); 
01F0:  MOVF   32,W
01F1:  MOVWF  33
01F2:  INCF   33,F
01F3:  DECF   33,F
01F4:  BTFSC  03.2
01F5:  GOTO   1FA
01F6:  MOVLW  FF
01F7:  MOVWF  34
01F8:  CALL   1C9
01F9:  GOTO   1F3
01FA:  MOVF   31,W
01FB:  MOVWF  34
01FC:  CALL   1C9
....................  output_low(MOTOR1_STEP); 
01FD:  BCF    2C.7
01FE:  MOVF   2C,W
01FF:  BSF    03.5
0200:  MOVWF  07
0201:  BCF    03.5
0202:  BCF    07.7
....................  output_low(MOTOR2_STEP); 
0203:  BCF    2C.5
0204:  MOVF   2C,W
0205:  BSF    03.5
0206:  MOVWF  07
0207:  BCF    03.5
0208:  BCF    07.5
....................  delay_us(velocidad); 
0209:  MOVF   32,W
020A:  MOVWF  33
020B:  INCF   33,F
020C:  DECF   33,F
020D:  BTFSC  03.2
020E:  GOTO   213
020F:  MOVLW  FF
0210:  MOVWF  34
0211:  CALL   1C9
0212:  GOTO   20C
0213:  MOVF   31,W
0214:  MOVWF  34
0215:  CALL   1C9
0216:  BCF    0A.3
0217:  BCF    0A.4
0218:  GOTO   34E (RETURN)
.................... } 
.................... void pasos_derecha(unsigned long velocidad) // Funcion de pasos a la derecha 
.................... { 
....................  output_low(MOTOR1_DIR); 
*
026B:  BCF    2C.6
026C:  MOVF   2C,W
026D:  BSF    03.5
026E:  MOVWF  07
026F:  BCF    03.5
0270:  BCF    07.6
....................  output_low(MOTOR2_DIR); 
0271:  BCF    2C.4
0272:  MOVF   2C,W
0273:  BSF    03.5
0274:  MOVWF  07
0275:  BCF    03.5
0276:  BCF    07.4
....................  output_high(MOTOR1_STEP); 
0277:  BCF    2C.7
0278:  MOVF   2C,W
0279:  BSF    03.5
027A:  MOVWF  07
027B:  BCF    03.5
027C:  BSF    07.7
....................  output_high(MOTOR2_STEP); 
027D:  BCF    2C.5
027E:  MOVF   2C,W
027F:  BSF    03.5
0280:  MOVWF  07
0281:  BCF    03.5
0282:  BSF    07.5
....................  delay_us(velocidad); 
0283:  MOVF   32,W
0284:  MOVWF  33
0285:  INCF   33,F
0286:  DECF   33,F
0287:  BTFSC  03.2
0288:  GOTO   28D
0289:  MOVLW  FF
028A:  MOVWF  34
028B:  CALL   1C9
028C:  GOTO   286
028D:  MOVF   31,W
028E:  MOVWF  34
028F:  CALL   1C9
....................  output_low(MOTOR1_STEP); 
0290:  BCF    2C.7
0291:  MOVF   2C,W
0292:  BSF    03.5
0293:  MOVWF  07
0294:  BCF    03.5
0295:  BCF    07.7
....................  output_low(MOTOR2_STEP); 
0296:  BCF    2C.5
0297:  MOVF   2C,W
0298:  BSF    03.5
0299:  MOVWF  07
029A:  BCF    03.5
029B:  BCF    07.5
....................  delay_us(velocidad); 
029C:  MOVF   32,W
029D:  MOVWF  33
029E:  INCF   33,F
029F:  DECF   33,F
02A0:  BTFSC  03.2
02A1:  GOTO   2A6
02A2:  MOVLW  FF
02A3:  MOVWF  34
02A4:  CALL   1C9
02A5:  GOTO   29F
02A6:  MOVF   31,W
02A7:  MOVWF  34
02A8:  CALL   1C9
02A9:  BCF    0A.3
02AA:  BCF    0A.4
02AB:  GOTO   37E (RETURN)
.................... } 
.................... void pasos_off(void) // Funcion de detener 
.................... { 
....................  output_low(MOTOR1_DIR); 
*
0004:  BCF    2C.6
0005:  MOVF   2C,W
0006:  BSF    03.5
0007:  MOVWF  07
0008:  BCF    03.5
0009:  BCF    07.6
....................  output_low(MOTOR2_DIR); 
000A:  BCF    2C.4
000B:  MOVF   2C,W
000C:  BSF    03.5
000D:  MOVWF  07
000E:  BCF    03.5
000F:  BCF    07.4
....................  output_low(MOTOR1_STEP); 
0010:  BCF    2C.7
0011:  MOVF   2C,W
0012:  BSF    03.5
0013:  MOVWF  07
0014:  BCF    03.5
0015:  BCF    07.7
....................  output_low(MOTOR2_STEP); 
0016:  BCF    2C.5
0017:  MOVF   2C,W
0018:  BSF    03.5
0019:  MOVWF  07
001A:  BCF    03.5
001B:  BCF    07.5
001C:  RETURN
.................... } 
.................... /////////////////////////////////////////////////////////////////////////////// 
.................... void pasos_izquierda_M3(unsigned long velocidad) // Funcion de pasos hacia la izquierda 
.................... { 
....................  output_high(MOTOR3_DIR); 
*
0219:  BSF    03.5
021A:  BCF    08.2
021B:  BCF    03.5
021C:  BSF    08.2
....................  output_high(MOTOR3_STEP); 
021D:  BSF    03.5
021E:  BCF    08.3
021F:  BCF    03.5
0220:  BSF    08.3
....................  delay_us(velocidad); 
0221:  MOVF   32,W
0222:  MOVWF  33
0223:  INCF   33,F
0224:  DECF   33,F
0225:  BTFSC  03.2
0226:  GOTO   22B
0227:  MOVLW  FF
0228:  MOVWF  34
0229:  CALL   1C9
022A:  GOTO   224
022B:  MOVF   31,W
022C:  MOVWF  34
022D:  CALL   1C9
....................  output_low(MOTOR3_STEP); 
022E:  BSF    03.5
022F:  BCF    08.3
0230:  BCF    03.5
0231:  BCF    08.3
....................  delay_us(velocidad); 
0232:  MOVF   32,W
0233:  MOVWF  33
0234:  INCF   33,F
0235:  DECF   33,F
0236:  BTFSC  03.2
0237:  GOTO   23C
0238:  MOVLW  FF
0239:  MOVWF  34
023A:  CALL   1C9
023B:  GOTO   235
023C:  MOVF   31,W
023D:  MOVWF  34
023E:  CALL   1C9
023F:  BCF    0A.3
0240:  BCF    0A.4
0241:  GOTO   35E (RETURN)
.................... } 
.................... void pasos_derecha_M3(unsigned long velocidad) // Funcion de pasos a la derecha 
.................... { 
....................  output_low(MOTOR3_DIR); 
0242:  BSF    03.5
0243:  BCF    08.2
0244:  BCF    03.5
0245:  BCF    08.2
....................  output_high(MOTOR3_STEP); 
0246:  BSF    03.5
0247:  BCF    08.3
0248:  BCF    03.5
0249:  BSF    08.3
....................  delay_us(velocidad); 
024A:  MOVF   32,W
024B:  MOVWF  33
024C:  INCF   33,F
024D:  DECF   33,F
024E:  BTFSC  03.2
024F:  GOTO   254
0250:  MOVLW  FF
0251:  MOVWF  34
0252:  CALL   1C9
0253:  GOTO   24D
0254:  MOVF   31,W
0255:  MOVWF  34
0256:  CALL   1C9
....................  output_low(MOTOR3_STEP); 
0257:  BSF    03.5
0258:  BCF    08.3
0259:  BCF    03.5
025A:  BCF    08.3
....................  delay_us(velocidad); 
025B:  MOVF   32,W
025C:  MOVWF  33
025D:  INCF   33,F
025E:  DECF   33,F
025F:  BTFSC  03.2
0260:  GOTO   265
0261:  MOVLW  FF
0262:  MOVWF  34
0263:  CALL   1C9
0264:  GOTO   25E
0265:  MOVF   31,W
0266:  MOVWF  34
0267:  CALL   1C9
0268:  BCF    0A.3
0269:  BCF    0A.4
026A:  GOTO   36E (RETURN)
.................... } 
.................... void pasos_off_M3(void) // Funcion de detener 
.................... { 
....................  output_low(MOTOR3_DIR); 
*
001D:  BSF    03.5
001E:  BCF    08.2
001F:  BCF    03.5
0020:  BCF    08.2
....................  output_low(MOTOR3_STEP); 
0021:  BSF    03.5
0022:  BCF    08.3
0023:  BCF    03.5
0024:  BCF    08.3
0025:  RETURN
.................... } 

Configuration Fuses:
   Word  1: 3F7A   HS NOWDT NOPUT BROWNOUT NOLVP NOCPD NOWRT NODEBUG NOPROTECT
